target datalayout = "e-m:e-p270:32:32-p271:32:32-p272:64:64-i64:64-i128:128-f80:128-n8:16:32:64-S128"
target triple = "x86_64-pc-linux-gnu"

%struct.ImVec2 = type { float, float }
%struct.ImGuiStyle = type { float, float, %struct.ImVec2, float, float, %struct.ImVec2, %struct.ImVec2, i32, float, float, float, float, %struct.ImVec2, float, float, %struct.ImVec2, %struct.ImVec2, %struct.ImVec2, %struct.ImVec2, float, float, float, float, float, float, float, float, float, float, float, float, float, %struct.ImVec2, i32, %struct.ImVec2, %struct.ImVec2, float, %struct.ImVec2, %struct.ImVec2, %struct.ImVec2, %struct.ImVec2, float, i8, i8, i8, float, float, [56 x %struct.ImVec4], float, float, float, i32, i32 }
%struct.ImVec4 = type { float, float, float, float }
%struct.ImGuiIO = type { i32, i32, %struct.ImVec2, float, float, ptr, ptr, ptr, ptr, float, i8, ptr, %struct.ImVec2, i8, i8, i8, i8, i8, i8, i8, i8, i8, i8, float, float, float, float, float, float, i8, i8, i8, i8, i8, i8, i8, i8, i8, i8, ptr, ptr, ptr, ptr, ptr, i8, i8, i8, i8, i8, i8, i8, float, i32, i32, i32, i32, %struct.ImVec2, ptr, %struct.ImVec2, [5 x i8], float, float, i32, i8, i8, i8, i8, i32, [154 x %struct.ImGuiKeyData], i8, %struct.ImVec2, [5 x %struct.ImVec2], [5 x double], [5 x i8], [5 x i8], [5 x i16], [5 x i16], [5 x i8], [5 x i8], [5 x i8], i8, i8, [5 x float], [5 x float], [5 x float], float, i8, i8, i8, i8, i16, %struct.ImVector }
%struct.ImGuiKeyData = type { i8, float, float, float }
%struct.ImVector = type { i32, i32, ptr }
%struct.ImGuiContext = type { i8, i8, %struct.ImGuiIO, %struct.ImGuiPlatformIO, %struct.ImGuiStyle, ptr, float, float, float, float, %struct.ImDrawListSharedData, double, i32, i32, i32, i8, i8, i8, i8, i8, ptr, [16 x i8], %struct.ImVector.1, %struct.ImVector.1, i32, i32, %struct.ImVector.2, %struct.ImVector.2, %struct.ImVector.2, %struct.ImVector.3, %struct.ImGuiStorage, i32, %struct.ImVec2, i32, ptr, ptr, ptr, ptr, ptr, ptr, %struct.ImVec2, i32, i32, float, %struct.ImVec2, %struct.ImVec2, i32, i32, i32, i32, i32, float, float, i8, i8, i8, i32, i32, float, i8, i8, i8, i8, i8, i8, i8, i8, %struct.ImVec2, ptr, i32, i32, i8, i8, ptr, i32, float, double, double, double, %struct.ImBitArray, [154 x %struct.ImGuiKeyOwnerData], %struct.ImGuiKeyRoutingTable, i32, i8, i32, i32, i32, i32, %struct.ImGuiNextItemData, %struct.ImGuiLastItemData, %struct.ImGuiNextWindowData, i8, i32, %struct.ImVector.6, %struct.ImVector.7, %struct.ImVector.8, %struct.ImVector.9, %struct.ImVector.10, %struct.ImVector.11, %struct.ImVector.12, %struct.ImVector.12, %struct.ImVector.13, %struct.ImVector.14, ptr, i32, i32, i32, i32, i32, i32, i32, %struct.ImVector.9, i32, float, i32, i32, i32, i64, i8, i8, i8, i8, i8, i8, i8, %struct.ImGuiNavItemData, i8, i8, i8, i32, i32, i32, i32, i32, i32, %struct.ImRect, %struct.ImRect, i32, i32, i32, %struct.ImGuiNavItemData, %struct.ImGuiNavItemData, %struct.ImGuiNavItemData, %struct.ImGuiNavItemData, i32, i32, i32, i32, i8, i8, i32, i32, ptr, ptr, ptr, float, float, i8, i32, %struct.ImVec2, %struct.ImVec2, float, i8, i8, i8, i32, i32, i32, [4 x i8], %struct.ImGuiPayload, %struct.ImRect, %struct.ImRect, i32, i32, float, i32, i32, i32, i32, %struct.ImVector.15, [16 x i8], i32, %struct.ImVector.16, ptr, i32, i32, %struct.ImVector.17, %struct.ImPool, %struct.ImVector.19, %struct.ImVector.20, ptr, %struct.ImPool.21, %struct.ImVector.23, %struct.ImVector.24, %struct.ImGuiBoxSelectState, ptr, i32, %struct.ImVector.25, %struct.ImPool.26, i32, i32, float, float, i32, i32, i32, float, %struct.ImVec2, %struct.ImGuiInputTextState, %struct.ImGuiInputTextDeactivatedState, %struct.ImFont, i32, %struct.ImGuiDataTypeStorage, i32, i32, i32, i32, i32, float, float, i32, %struct.ImVec4, %struct.ImGuiComboPreviewData, %struct.ImRect, i8, i16, float, float, float, i8, i8, float, float, float, i16, i16, i16, ptr, %struct.ImVector.28, %struct.ImVector.30, %struct.ImGuiTypingSelectState, %struct.ImGuiPlatformImeData, %struct.ImGuiPlatformImeData, i8, float, %struct.ImGuiTextBuffer, %struct.ImVector.31, %struct.ImChunkStream, %struct.ImChunkStream.32, %struct.ImVector.33, i32, [10 x ptr], i8, i32, ptr, %struct.ImGuiTextBuffer, ptr, ptr, float, i8, i32, i32, i32, ptr, ptr, %struct.ImVec2, i8, i32, %struct.ImGuiErrorRecoveryState, ptr, i32, i32, %struct.ImGuiTextBuffer, %struct.ImGuiTextIndex, i32, i32, i8, i8, i8, i32, i8, i8, i8, i32, float, %struct.ImVec4, %struct.ImGuiMetricsConfig, %struct.ImGuiIDStackTool, %struct.ImGuiDebugAllocInfo, [60 x float], i32, i32, float, i32, i32, i32, %struct.ImVector.28, [64 x i8] }
%struct.ImGuiPlatformIO = type <{ ptr, ptr, ptr, ptr, ptr, ptr, ptr, i16, [6 x i8] }>
%struct.ImDrawListSharedData = type { %struct.ImVec2, ptr, float, float, float, float, %struct.ImVec4, i32, %struct.ImVector.0, [48 x %struct.ImVec2], float, [64 x i8], ptr }
%struct.ImVector.0 = type { i32, i32, ptr }
%struct.ImVector.1 = type { i32, i32, ptr }
%struct.ImVector.2 = type { i32, i32, ptr }
%struct.ImVector.3 = type { i32, i32, ptr }
%struct.ImGuiStorage = type { %struct.ImVector.4 }
%struct.ImVector.4 = type { i32, i32, ptr }
%struct.ImBitArray = type { [5 x i32] }
%struct.ImGuiKeyOwnerData = type <{ i32, i32, i8, i8, [2 x i8] }>
%struct.ImGuiKeyRoutingTable = type { [154 x i16], %struct.ImVector.5, %struct.ImVector.5 }
%struct.ImVector.5 = type { i32, i32, ptr }
%struct.ImGuiNextItemData = type <{ i32, i32, i32, [4 x i8], i64, float, i32, i32, i8, i8, %struct.ImGuiDataTypeStorage, [2 x i8], i32, [4 x i8] }>
%struct.ImGuiLastItemData = type { i32, i32, i32, %struct.ImRect, %struct.ImRect, %struct.ImRect, %struct.ImRect, i32 }
%struct.ImGuiNextWindowData = type { i32, i32, i32, i32, %struct.ImVec2, %struct.ImVec2, %struct.ImVec2, %struct.ImVec2, %struct.ImVec2, i32, i8, %struct.ImRect, ptr, ptr, float, %struct.ImVec2, i32 }
%struct.ImVector.6 = type { i32, i32, ptr }
%struct.ImVector.7 = type { i32, i32, ptr }
%struct.ImVector.8 = type { i32, i32, ptr }
%struct.ImVector.10 = type { i32, i32, ptr }
%struct.ImVector.11 = type { i32, i32, ptr }
%struct.ImVector.12 = type { i32, i32, ptr }
%struct.ImVector.13 = type { i32, i32, ptr }
%struct.ImVector.14 = type { i32, i32, ptr }
%struct.ImVector.9 = type { i32, i32, ptr }
%struct.ImGuiNavItemData = type { ptr, i32, i32, %struct.ImRect, i32, float, float, float, i64 }
%struct.ImGuiPayload = type <{ ptr, i32, i32, i32, i32, [33 x i8], i8, i8, [5 x i8] }>
%struct.ImVector.15 = type { i32, i32, ptr }
%struct.ImVector.16 = type { i32, i32, ptr }
%struct.ImVector.17 = type { i32, i32, ptr }
%struct.ImPool = type { %struct.ImVector.18, %struct.ImGuiStorage, i32, i32 }
%struct.ImVector.18 = type { i32, i32, ptr }
%struct.ImVector.19 = type { i32, i32, ptr }
%struct.ImVector.20 = type { i32, i32, ptr }
%struct.ImPool.21 = type { %struct.ImVector.22, %struct.ImGuiStorage, i32, i32 }
%struct.ImVector.22 = type { i32, i32, ptr }
%struct.ImVector.23 = type { i32, i32, ptr }
%struct.ImVector.24 = type { i32, i32, ptr }
%struct.ImGuiBoxSelectState = type <{ i32, i8, i8, i8, i8, i8, i16, i8, %struct.ImVec2, %struct.ImVec2, %struct.ImVec2, [4 x i8], ptr, i8, [3 x i8], %struct.ImRect, %struct.ImRect, %struct.ImRect, [4 x i8] }>
%struct.ImVector.25 = type { i32, i32, ptr }
%struct.ImPool.26 = type { %struct.ImVector.27, %struct.ImGuiStorage, i32, i32 }
%struct.ImVector.27 = type { i32, i32, ptr }
%struct.ImGuiInputTextState = type <{ ptr, ptr, i32, i32, %struct.ImVector.28, %struct.ImVector.28, %struct.ImVector.28, i32, %struct.ImVec2, float, i8, i8, i8, i8, i32, i8, [3 x i8], i32, i32, [4 x i8] }>
%struct.ImGuiInputTextDeactivatedState = type { i32, %struct.ImVector.28 }
%struct.ImFont = type <{ %struct.ImVector.19, float, float, %struct.ImVector, %struct.ImVector.29, ptr, ptr, ptr, i16, i16, i16, i16, float, float, i8, [3 x i8], float, float, float, i32, [2 x i8], [2 x i8] }>
%struct.ImVector.29 = type { i32, i32, ptr }
%struct.ImGuiDataTypeStorage = type { [8 x i8] }
%struct.ImGuiComboPreviewData = type { %struct.ImRect, %struct.ImVec2, %struct.ImVec2, %struct.ImVec2, float, i32 }
%struct.ImRect = type { %struct.ImVec2, %struct.ImVec2 }
%struct.ImVector.30 = type { i32, i32, ptr }
%struct.ImGuiTypingSelectState = type <{ %struct.ImGuiTypingSelectRequest, [64 x i8], i32, i32, float, i8, [3 x i8] }>
%struct.ImGuiTypingSelectRequest = type { i32, i32, ptr, i8, i8, i8 }
%struct.ImGuiPlatformImeData = type { i8, %struct.ImVec2, float }
%struct.ImVector.31 = type { i32, i32, ptr }
%struct.ImChunkStream = type { %struct.ImVector.28 }
%struct.ImChunkStream.32 = type { %struct.ImVector.28 }
%struct.ImVector.33 = type { i32, i32, ptr }
%struct.ImGuiErrorRecoveryState = type { i16, i16, i16, i16, i16, i16, i16, i16, i16, i16, i16 }
%struct.ImGuiTextBuffer = type { %struct.ImVector.28 }
%struct.ImGuiTextIndex = type <{ %struct.ImVector.10, i32, [4 x i8] }>
%struct.ImGuiMetricsConfig = type { i8, i8, i8, i8, i8, i8, i8, i8, i8, i32, i32, i32, i32 }
%struct.ImGuiIDStackTool = type { i32, i32, i32, %struct.ImVector.34, i8, float }
%struct.ImVector.34 = type { i32, i32, ptr }
%struct.ImGuiDebugAllocInfo = type { i32, i32, i16, [6 x %struct.ImGuiDebugAllocEntry] }
%struct.ImGuiDebugAllocEntry = type { i32, i16, i16 }
%struct.ImVector.28 = type { i32, i32, ptr }

@GImGui = dso_local global ptr null, align 8

; Function Attrs: inlinehint mustprogress nounwind uwtable
define linkonce_odr dso_local noundef i32 @_ZNK8ImVectorIhE14_grow_capacityEi(ptr noundef nonnull align 8 dereferenceable(16) %0, i32 noundef %1) #7 comdat align 2 {
  %3 = alloca ptr, align 8
  %4 = alloca i32, align 4
  %5 = alloca i32, align 4
  store ptr %0, ptr %3, align 8, !tbaa !842
  store i32 %1, ptr %4, align 4, !tbaa !117
  %6 = load ptr, ptr %3, align 8
  call void @llvm.lifetime.start.p0(i64 4, ptr %5) #16
  %7 = getelementptr inbounds nuw %struct.ImVector.15, ptr %6, i32 0, i32 1
  %8 = load i32, ptr %7, align 4, !tbaa !844
  %9 = icmp ne i32 %8, 0
  br i1 %9, label %10, label %17

10:                                               ; preds = %2
  %11 = getelementptr inbounds nuw %struct.ImVector.15, ptr %6, i32 0, i32 1
  %12 = load i32, ptr %11, align 4, !tbaa !844
  %13 = getelementptr inbounds nuw %struct.ImVector.15, ptr %6, i32 0, i32 1
  %14 = load i32, ptr %13, align 4, !tbaa !844
  %15 = sdiv i32 %14, 2
  %16 = add nsw i32 %12, %15
  br label %18

17:                                               ; preds = %2
  br label %18

18:                                               ; preds = %17, %10
  %19 = phi i32 [ %16, %10 ], [ 8, %17 ]
  store i32 %19, ptr %5, align 4, !tbaa !117
  %20 = load i32, ptr %5, align 4, !tbaa !117
  %21 = load i32, ptr %4, align 4, !tbaa !117
  %22 = icmp sgt i32 %20, %21
  br i1 %22, label %23, label %25

23:                                               ; preds = %18
  %24 = load i32, ptr %5, align 4, !tbaa !117
  br label %27

25:                                               ; preds = %18
  %26 = load i32, ptr %4, align 4, !tbaa !117
  br label %27

27:                                               ; preds = %25, %23
  %28 = phi i32 [ %24, %23 ], [ %26, %25 ]
  call void @llvm.lifetime.end.p0(i64 4, ptr %5) #16
  ret i32 %28
}

; Function Attrs: inlinehint mustprogress uwtable
define linkonce_odr dso_local void @_ZN8ImVectorIhE6resizeEi(ptr noundef nonnull align 8 dereferenceable(16) %0, i32 noundef %1) #9 comdat align 2 {
  %3 = alloca ptr, align 8
  %4 = alloca i32, align 4
  store ptr %0, ptr %3, align 8, !tbaa !842
  store i32 %1, ptr %4, align 4, !tbaa !117
  %5 = load ptr, ptr %3, align 8
  %6 = load i32, ptr %4, align 4, !tbaa !117
  %7 = getelementptr inbounds nuw %struct.ImVector.15, ptr %5, i32 0, i32 1
  %8 = load i32, ptr %7, align 4, !tbaa !844
  %9 = icmp sgt i32 %6, %8
  br i1 %9, label %10, label %13

10:                                               ; preds = %2
  %11 = load i32, ptr %4, align 4, !tbaa !117
  %12 = call noundef i32 @_ZNK8ImVectorIhE14_grow_capacityEi(ptr noundef nonnull align 8 dereferenceable(16) %5, i32 noundef %11)
  call void @_ZN8ImVectorIhE7reserveEi(ptr noundef nonnull align 8 dereferenceable(16) %5, i32 noundef %12)
  br label %13

13:                                               ; preds = %10, %2
  %14 = load i32, ptr %4, align 4, !tbaa !117
  %15 = getelementptr inbounds nuw %struct.ImVector.15, ptr %5, i32 0, i32 0
  store i32 %14, ptr %15, align 8, !tbaa !845
  ret void
}

; Function Attrs: mustprogress nounwind uwtable
define dso_local void @_Z9ImStrncpyPcPKcm(ptr noundef %0, ptr noundef %1, i64 noundef %2) #1 {
  %4 = alloca ptr, align 8
  %5 = alloca ptr, align 8
  %6 = alloca i64, align 8
  store ptr %0, ptr %4, align 8, !tbaa !254
  store ptr %1, ptr %5, align 8, !tbaa !254
  store i64 %2, ptr %6, align 8, !tbaa !290
  %7 = load i64, ptr %6, align 8, !tbaa !290
  %8 = icmp ult i64 %7, 1
  br i1 %8, label %9, label %10

9:                                                ; preds = %3
  br label %24

10:                                               ; preds = %3
  %11 = load i64, ptr %6, align 8, !tbaa !290
  %12 = icmp ugt i64 %11, 1
  br i1 %12, label %13, label %19

13:                                               ; preds = %10
  %14 = load ptr, ptr %4, align 8, !tbaa !254
  %15 = load ptr, ptr %5, align 8, !tbaa !254
  %16 = load i64, ptr %6, align 8, !tbaa !290
  %17 = sub i64 %16, 1
  %18 = call ptr @strncpy(ptr noundef %14, ptr noundef %15, i64 noundef %17) #16
  br label %19

19:                                               ; preds = %13, %10
  %20 = load ptr, ptr %4, align 8, !tbaa !254
  %21 = load i64, ptr %6, align 8, !tbaa !290
  %22 = sub i64 %21, 1
  %23 = getelementptr inbounds nuw i8, ptr %20, i64 %22
  store i8 0, ptr %23, align 1, !tbaa !245
  br label %24

24:                                               ; preds = %19, %9
  ret void
}

; Function Attrs: mustprogress uwtable
define dso_local noundef zeroext i1 @_ZN5ImGui18SetDragDropPayloadEPKcPKvmi(ptr noundef %0, ptr noundef %1, i64 noundef %2, i32 noundef %3) #0 {
  %5 = alloca ptr, align 8
  %6 = alloca ptr, align 8
  %7 = alloca i64, align 8
  %8 = alloca i32, align 4
  %9 = alloca ptr, align 8
  %10 = alloca ptr, align 8
  store ptr %0, ptr %5, align 8, !tbaa !254
  store ptr %1, ptr %6, align 8, !tbaa !293
  store i64 %2, ptr %7, align 8, !tbaa !290
  store i32 %3, ptr %8, align 4, !tbaa !117
  call void @llvm.lifetime.start.p0(i64 8, ptr %9) #16
  %11 = load ptr, ptr @GImGui, align 8, !tbaa !133
  store ptr %11, ptr %9, align 8, !tbaa !133
  call void @llvm.lifetime.start.p0(i64 8, ptr %10) #16
  %12 = load ptr, ptr %9, align 8, !tbaa !133
  %13 = getelementptr inbounds nuw %struct.ImGuiContext, ptr %12, i32 0, i32 169
  store ptr %13, ptr %10, align 8, !tbaa !840
  %14 = load i32, ptr %8, align 4, !tbaa !117
  %15 = icmp eq i32 %14, 0
  br i1 %15, label %16, label %17

16:                                               ; preds = %4
  store i32 1, ptr %8, align 4, !tbaa !117
  br label %17

17:                                               ; preds = %16, %4
  %18 = load i32, ptr %8, align 4, !tbaa !117
  %19 = icmp eq i32 %18, 1
  br i1 %19, label %25, label %20

20:                                               ; preds = %17
  %21 = load ptr, ptr %10, align 8, !tbaa !840
  %22 = getelementptr inbounds nuw %struct.ImGuiPayload, ptr %21, i32 0, i32 4
  %23 = load i32, ptr %22, align 4, !tbaa !1539
  %24 = icmp eq i32 %23, -1
  br i1 %24, label %25, label %75

25:                                               ; preds = %20, %17
  %26 = load ptr, ptr %10, align 8, !tbaa !840
  %27 = getelementptr inbounds nuw %struct.ImGuiPayload, ptr %26, i32 0, i32 5
  %28 = getelementptr inbounds [33 x i8], ptr %27, i64 0, i64 0
  %29 = load ptr, ptr %5, align 8, !tbaa !254
  call void @_Z9ImStrncpyPcPKcm(ptr noundef %28, ptr noundef %29, i64 noundef 33)
  %30 = load ptr, ptr %9, align 8, !tbaa !133
  %31 = getelementptr inbounds nuw %struct.ImGuiContext, ptr %30, i32 0, i32 179
  call void @_ZN8ImVectorIhE6resizeEi(ptr noundef nonnull align 8 dereferenceable(16) %31, i32 noundef 0)
  %32 = load i64, ptr %7, align 8, !tbaa !290
  %33 = icmp ugt i64 %32, 16
  br i1 %33, label %34, label %50

34:                                               ; preds = %25
  %35 = load ptr, ptr %9, align 8, !tbaa !133
  %36 = getelementptr inbounds nuw %struct.ImGuiContext, ptr %35, i32 0, i32 179
  %37 = load i64, ptr %7, align 8, !tbaa !290
  %38 = trunc i64 %37 to i32
  call void @_ZN8ImVectorIhE6resizeEi(ptr noundef nonnull align 8 dereferenceable(16) %36, i32 noundef %38)
  %39 = load ptr, ptr %9, align 8, !tbaa !133
  %40 = getelementptr inbounds nuw %struct.ImGuiContext, ptr %39, i32 0, i32 179
  %41 = getelementptr inbounds nuw %struct.ImVector.15, ptr %40, i32 0, i32 2
  %42 = load ptr, ptr %41, align 8, !tbaa !1543
  %43 = load ptr, ptr %10, align 8, !tbaa !840
  %44 = getelementptr inbounds nuw %struct.ImGuiPayload, ptr %43, i32 0, i32 0
  store ptr %42, ptr %44, align 8, !tbaa !1537
  %45 = load ptr, ptr %10, align 8, !tbaa !840
  %46 = getelementptr inbounds nuw %struct.ImGuiPayload, ptr %45, i32 0, i32 0
  %47 = load ptr, ptr %46, align 8, !tbaa !1537
  %48 = load ptr, ptr %6, align 8, !tbaa !293
  %49 = load i64, ptr %7, align 8, !tbaa !290
  call void @llvm.memcpy.p0.p0.i64(ptr align 1 %47, ptr align 1 %48, i64 %49, i1 false)
  br label %70

50:                                               ; preds = %25
  %51 = load i64, ptr %7, align 8, !tbaa !290
  %52 = icmp ugt i64 %51, 0
  br i1 %52, label %53, label %66

53:                                               ; preds = %50
  %54 = load ptr, ptr %9, align 8, !tbaa !133
  %55 = getelementptr inbounds nuw %struct.ImGuiContext, ptr %54, i32 0, i32 180
  call void @llvm.memset.p0.i64(ptr align 8 %55, i8 0, i64 16, i1 false)
  %56 = load ptr, ptr %9, align 8, !tbaa !133
  %57 = getelementptr inbounds nuw %struct.ImGuiContext, ptr %56, i32 0, i32 180
  %58 = getelementptr inbounds [16 x i8], ptr %57, i64 0, i64 0
  %59 = load ptr, ptr %10, align 8, !tbaa !840
  %60 = getelementptr inbounds nuw %struct.ImGuiPayload, ptr %59, i32 0, i32 0
  store ptr %58, ptr %60, align 8, !tbaa !1537
  %61 = load ptr, ptr %10, align 8, !tbaa !840
  %62 = getelementptr inbounds nuw %struct.ImGuiPayload, ptr %61, i32 0, i32 0
  %63 = load ptr, ptr %62, align 8, !tbaa !1537
  %64 = load ptr, ptr %6, align 8, !tbaa !293
  %65 = load i64, ptr %7, align 8, !tbaa !290
  call void @llvm.memcpy.p0.p0.i64(ptr align 1 %63, ptr align 1 %64, i64 %65, i1 false)
  br label %69

66:                                               ; preds = %50
  %67 = load ptr, ptr %10, align 8, !tbaa !840
  %68 = getelementptr inbounds nuw %struct.ImGuiPayload, ptr %67, i32 0, i32 0
  store ptr null, ptr %68, align 8, !tbaa !1537
  br label %69

69:                                               ; preds = %66, %53
  br label %70

70:                                               ; preds = %69, %34
  %71 = load i64, ptr %7, align 8, !tbaa !290
  %72 = trunc i64 %71 to i32
  %73 = load ptr, ptr %10, align 8, !tbaa !840
  %74 = getelementptr inbounds nuw %struct.ImGuiPayload, ptr %73, i32 0, i32 1
  store i32 %72, ptr %74, align 8, !tbaa !1538
  br label %75

75:                                               ; preds = %70, %20
  %76 = load ptr, ptr %9, align 8, !tbaa !133
  %77 = getelementptr inbounds nuw %struct.ImGuiContext, ptr %76, i32 0, i32 12
  %78 = load i32, ptr %77, align 8, !tbaa !294
  %79 = load ptr, ptr %10, align 8, !tbaa !840
  %80 = getelementptr inbounds nuw %struct.ImGuiPayload, ptr %79, i32 0, i32 4
  store i32 %78, ptr %80, align 4, !tbaa !1539
  %81 = load ptr, ptr %9, align 8, !tbaa !133
  %82 = getelementptr inbounds nuw %struct.ImGuiContext, ptr %81, i32 0, i32 177
  %83 = load i32, ptr %82, align 4, !tbaa !720
  %84 = load ptr, ptr %9, align 8, !tbaa !133
  %85 = getelementptr inbounds nuw %struct.ImGuiContext, ptr %84, i32 0, i32 12
  %86 = load i32, ptr %85, align 8, !tbaa !294
  %87 = icmp eq i32 %83, %86
  br i1 %87, label %97, label %88

88:                                               ; preds = %75
  %89 = load ptr, ptr %9, align 8, !tbaa !133
  %90 = getelementptr inbounds nuw %struct.ImGuiContext, ptr %89, i32 0, i32 177
  %91 = load i32, ptr %90, align 4, !tbaa !720
  %92 = load ptr, ptr %9, align 8, !tbaa !133
  %93 = getelementptr inbounds nuw %struct.ImGuiContext, ptr %92, i32 0, i32 12
  %94 = load i32, ptr %93, align 8, !tbaa !294
  %95 = sub nsw i32 %94, 1
  %96 = icmp eq i32 %91, %95
  br label %97

97:                                               ; preds = %88, %75
  %98 = phi i1 [ true, %75 ], [ %96, %88 ]
  call void @llvm.lifetime.end.p0(i64 8, ptr %10) #16
  call void @llvm.lifetime.end.p0(i64 8, ptr %9) #16
  ret i1 %98
}