; Function Attrs: mustprogress uwtable
define dso_local noundef zeroext i1 @_ZN5ImGui18SetDragDropPayloadEPKcPKvmi(ptr noundef readonly captures(none) %0, ptr noundef readonly captures(none) %1, i64 noundef %2, i32 noundef %3) local_unnamed_addr #0 {
  %5 = load ptr, ptr @GImGui, align 8, !tbaa !211
  %6 = getelementptr inbounds nuw i8, ptr %5, i64 8352
  %7 = icmp ult i32 %3, 2
  br i1 %7, label %12, label %8

8:                                                ; preds = %4
  %9 = getelementptr inbounds nuw i8, ptr %5, i64 8372
  %10 = load i32, ptr %9, align 4, !tbaa !574
  %11 = icmp eq i32 %10, -1
  br i1 %11, label %12, label %41

12:                                               ; preds = %8, %4
  %13 = getelementptr inbounds nuw i8, ptr %5, i64 8376
  %14 = tail call ptr @strncpy(ptr noundef nonnull dereferenceable(1) %13, ptr noundef nonnull readonly dereferenceable(1) %0, i64 noundef 32) #44
  %15 = getelementptr i8, ptr %5, i64 8408
  store i8 0, ptr %15, align 1, !tbaa !206
  %16 = getelementptr inbounds nuw i8, ptr %5, i64 8480
  %17 = getelementptr inbounds nuw i8, ptr %5, i64 8484
  %18 = load i32, ptr %17, align 4, !tbaa !1183
  %19 = icmp slt i32 %18, 0
  br i1 %19, label %20, label %_ZN8ImVectorIhE6resizeEi.exit

20:                                               ; preds = %12
  tail call void @_ZN8ImVectorIhE7reserveEi(ptr noundef nonnull align 8 dereferenceable(16) %16, i32 noundef 0)
  br label %_ZN8ImVectorIhE6resizeEi.exit

_ZN8ImVectorIhE6resizeEi.exit:                    ; preds = %12, %20
  store i32 0, ptr %16, align 8, !tbaa !1184
  %21 = icmp ugt i64 %2, 16
  br i1 %21, label %22, label %34

22:                                               ; preds = %_ZN8ImVectorIhE6resizeEi.exit
  %23 = trunc i64 %2 to i32
  %24 = load i32, ptr %17, align 4, !tbaa !1183
  %25 = icmp slt i32 %24, %23
  br i1 %25, label %26, label %_ZN8ImVectorIhE6resizeEi.exit32

26:                                               ; preds = %22
  %.not.i.i = icmp eq i32 %24, 0
  br i1 %.not.i.i, label %_ZNK8ImVectorIhE14_grow_capacityEi.exit.i, label %27

27:                                               ; preds = %26
  %28 = sdiv i32 %24, 2
  %29 = add nsw i32 %28, %24
  br label %_ZNK8ImVectorIhE14_grow_capacityEi.exit.i

_ZNK8ImVectorIhE14_grow_capacityEi.exit.i:        ; preds = %27, %26
  %30 = phi i32 [ %29, %27 ], [ 8, %26 ]
  %31 = tail call noundef i32 @llvm.smax.i32(i32 %30, i32 %23)
  tail call void @_ZN8ImVectorIhE7reserveEi(ptr noundef nonnull align 8 dereferenceable(16) %16, i32 noundef %31)
  br label %_ZN8ImVectorIhE6resizeEi.exit32

_ZN8ImVectorIhE6resizeEi.exit32:                  ; preds = %22, %_ZNK8ImVectorIhE14_grow_capacityEi.exit.i
  store i32 %23, ptr %16, align 8, !tbaa !1184
  %32 = getelementptr inbounds nuw i8, ptr %5, i64 8488
  %33 = load ptr, ptr %32, align 8, !tbaa !1304
  store ptr %33, ptr %6, align 8, !tbaa !1305
  tail call void @llvm.memcpy.p0.p0.i64(ptr align 1 %33, ptr align 1 %1, i64 %2, i1 false)
  br label %38

34:                                               ; preds = %_ZN8ImVectorIhE6resizeEi.exit
  %.not = icmp eq i64 %2, 0
  br i1 %.not, label %37, label %35

35:                                               ; preds = %34
  %36 = getelementptr inbounds nuw i8, ptr %5, i64 8496
  tail call void @llvm.memset.p0.i64(ptr noundef nonnull align 8 dereferenceable(16) %36, i8 0, i64 16, i1 false)
  store ptr %36, ptr %6, align 8, !tbaa !1305
  tail call void @llvm.memcpy.p0.p0.i64(ptr nonnull align 1 %36, ptr align 1 %1, i64 %2, i1 false)
  br label %38

37:                                               ; preds = %34
  store ptr null, ptr %6, align 8, !tbaa !1305
  br label %38

38:                                               ; preds = %35, %37, %_ZN8ImVectorIhE6resizeEi.exit32
  %39 = trunc i64 %2 to i32
  %40 = getelementptr inbounds nuw i8, ptr %5, i64 8360
  store i32 %39, ptr %40, align 8, !tbaa !1306
  br label %41

41:                                               ; preds = %38, %8
  %42 = getelementptr inbounds nuw i8, ptr %5, i64 4744
  %43 = load i32, ptr %42, align 8, !tbaa !212
  %44 = getelementptr inbounds nuw i8, ptr %5, i64 8372
  store i32 %43, ptr %44, align 4, !tbaa !574
  %45 = getelementptr inbounds nuw i8, ptr %5, i64 8468
  %46 = load i32, ptr %45, align 4, !tbaa !624
  %47 = icmp eq i32 %46, %43
  %48 = add nsw i32 %43, -1
  %49 = icmp eq i32 %46, %48
  %50 = select i1 %47, i1 true, i1 %49
  ret i1 %50
}